Certificate:
    Data:
        Version: 3 (0x2)
        Serial Number: 1 (0x1)
        Signature Algorithm: sha256WithRSAEncryption
        Issuer: C=es, O=umu, OU=ppc, CN=ca
        Validity
            Not Before: Oct 13 16:12:11 2021 GMT
            Not After : Oct 13 16:12:11 2022 GMT
        Subject: C=es, ST=Unknown, L=Unknown, O=umu, OU=ppc, CN=localhost
        Subject Public Key Info:
            Public Key Algorithm: rsaEncryption
                RSA Public-Key: (2048 bit)
                Modulus:
                    00:a2:94:f3:e6:7b:17:2c:1e:a8:af:02:ea:80:65:
                    51:db:82:69:21:3e:0c:3a:b7:09:ca:9f:f5:00:2b:
                    3c:a5:5f:2e:62:d2:f5:ab:9e:35:c8:bb:fd:db:cc:
                    b3:53:29:82:9d:e3:3f:ea:c4:69:46:25:0e:8b:d6:
                    ee:1c:ca:cc:1d:ab:d1:c1:53:df:57:b0:ac:e2:eb:
                    3f:04:64:9f:d7:91:e9:18:dc:41:d0:e0:73:71:78:
                    d7:3e:5c:fe:6f:91:75:a9:cd:0b:eb:1f:93:30:62:
                    25:f0:e6:a9:ba:d0:ca:17:aa:39:9b:b5:1c:a9:3a:
                    4d:db:3d:90:2b:3d:72:b3:ef:d0:17:e5:df:10:ba:
                    3b:d4:e1:08:cb:43:66:93:95:56:34:aa:b3:84:76:
                    0a:ba:01:a7:74:5d:65:71:a7:1b:d6:a5:3c:34:1b:
                    a5:e0:13:2a:29:9b:65:95:17:bc:c1:6c:1b:0f:5a:
                    e4:7e:7d:20:4e:8c:05:b1:5f:d7:92:ab:4d:36:99:
                    e4:28:0f:40:d0:c7:79:6d:74:8e:e5:65:df:e5:f8:
                    b2:b7:f0:03:bc:40:82:dc:12:c4:fe:b2:24:ad:9a:
                    2c:f1:b2:25:69:a9:3f:fe:52:4c:0a:f5:38:0a:22:
                    ed:07:e5:28:1a:49:e8:63:d7:cf:ab:a8:ea:e4:82:
                    c1:99
                Exponent: 65537 (0x10001)
        X509v3 extensions:
            X509v3 Basic Constraints: 
                CA:FALSE
            Netscape Comment: 
                OpenSSL Generated Certificate
            X509v3 Subject Key Identifier: 
                7A:CB:FE:CB:17:BC:AA:73:C7:97:FF:DD:F9:26:31:AE:82:FA:A8:C1
            X509v3 Authority Key Identifier: 
                keyid:05:BE:CC:3C:90:39:8C:38:46:59:23:DD:0C:28:04:B4:18:43:CB:6C

    Signature Algorithm: sha256WithRSAEncryption
         9e:1a:80:87:00:fa:7d:d9:83:bf:2c:91:86:61:5e:b9:47:ea:
         4c:70:a3:99:c5:89:a3:17:1c:a2:90:16:3a:ea:30:ae:c8:c1:
         5b:b0:23:76:4e:01:e5:82:e9:13:d3:c8:f1:f7:11:2f:a9:f8:
         f5:44:62:65:54:ae:7f:2b:7d:ac:06:a5:d5:02:c5:d2:24:90:
         c3:5b:fe:57:4c:e2:98:04:9c:0b:56:f5:17:e5:61:fe:ce:94:
         aa:c6:bd:37:dd:08:25:43:96:8d:59:5b:6b:1f:8f:20:e0:be:
         35:7e:02:57:8c:c2:a0:58:4a:d9:53:36:9d:8e:1d:89:0f:94:
         b1:e4:84:cc:71:e7:1a:05:85:e3:02:f8:b5:65:4c:19:9b:c8:
         6f:43:af:3f:fc:36:ca:ab:68:c8:b7:e6:55:08:28:5c:c7:59:
         a9:3e:e4:5c:6d:9f:6c:d5:af:9e:74:16:a8:ae:ca:8b:cd:ab:
         bc:07:23:64:ce:89:97:ee:7f:e4:34:a3:c1:76:66:b3:b0:f5:
         51:b9:34:41:86:2f:3a:ca:a2:c4:10:85:8b:b5:f4:a7:73:cf:
         d3:ba:2c:a7:b0:94:e4:40:97:71:90:bf:31:3e:90:8d:27:b6:
         d6:34:62:14:2d:2e:7a:c1:2e:ab:e6:31:1c:d5:04:43:5e:5f:
         2f:6b:cc:da
-----BEGIN CERTIFICATE-----
MIIDjTCCAnWgAwIBAgIBATANBgkqhkiG9w0BAQsFADA2MQswCQYDVQQGEwJlczEM
MAoGA1UECgwDdW11MQwwCgYDVQQLDANwcGMxCzAJBgNVBAMMAmNhMB4XDTIxMTAx
MzE2MTIxMVoXDTIyMTAxMzE2MTIxMVowYTELMAkGA1UEBhMCZXMxEDAOBgNVBAgT
B1Vua25vd24xEDAOBgNVBAcTB1Vua25vd24xDDAKBgNVBAoTA3VtdTEMMAoGA1UE
CxMDcHBjMRIwEAYDVQQDEwlsb2NhbGhvc3QwggEiMA0GCSqGSIb3DQEBAQUAA4IB
DwAwggEKAoIBAQCilPPmexcsHqivAuqAZVHbgmkhPgw6twnKn/UAKzylXy5i0vWr
njXIu/3bzLNTKYKd4z/qxGlGJQ6L1u4cyswdq9HBU99XsKzi6z8EZJ/XkekY3EHQ
4HNxeNc+XP5vkXWpzQvrH5MwYiXw5qm60MoXqjmbtRypOk3bPZArPXKz79AX5d8Q
ujvU4QjLQ2aTlVY0qrOEdgq6Aad0XWVxpxvWpTw0G6XgEyopm2WVF7zBbBsPWuR+
fSBOjAWxX9eSq002meQoD0DQx3ltdI7lZd/l+LK38AO8QILcEsT+siStmizxsiVp
qT/+UkwK9TgKIu0H5SgaSehj18+rqOrkgsGZAgMBAAGjezB5MAkGA1UdEwQCMAAw
LAYJYIZIAYb4QgENBB8WHU9wZW5TU0wgR2VuZXJhdGVkIENlcnRpZmljYXRlMB0G
A1UdDgQWBBR6y/7LF7yqc8eX/935JjGugvqowTAfBgNVHSMEGDAWgBQFvsw8kDmM
OEZZI90MKAS0GEPLbDANBgkqhkiG9w0BAQsFAAOCAQEAnhqAhwD6fdmDvyyRhmFe
uUfqTHCjmcWJoxccopAWOuowrsjBW7Ajdk4B5YLpE9PI8fcRL6n49URiZVSufyt9
rAal1QLF0iSQw1v+V0zimAScC1b1F+Vh/s6Uqsa9N90IJUOWjVlbax+PIOC+NX4C
V4zCoFhK2VM2nY4diQ+UseSEzHHnGgWF4wL4tWVMGZvIb0OvP/w2yqtoyLfmVQgo
XMdZqT7kXG2fbNWvnnQWqK7Ki82rvAcjZM6Jl+5/5DSjwXZms7D1Ubk0QYYvOsqi
xBCFi7X0p3PP07osp7CU5ECXcZC/MT6QjSe21jRiFC0uesEuq+YxHNUEQ15fL2vM
2g==
-----END CERTIFICATE-----
