Certificate:
    Data:
        Version: 3 (0x2)
        Serial Number: 2 (0x2)
        Signature Algorithm: sha256WithRSAEncryption
        Issuer: C=es, O=umu, OU=ppc, CN=ca
        Validity
            Not Before: Oct 13 16:18:48 2021 GMT
            Not After : Oct 13 16:18:48 2022 GMT
        Subject: C=es, ST=Unknown, L=Unknown, O=umu, OU=ppc, CN=Pedro Nicolas Gomariz
        Subject Public Key Info:
            Public Key Algorithm: rsaEncryption
                RSA Public-Key: (2048 bit)
                Modulus:
                    00:80:aa:5a:47:38:92:1a:60:96:24:35:95:30:68:
                    34:e0:b0:c8:4e:e5:c1:4b:f3:e3:b1:6b:c5:e1:66:
                    fa:a6:b3:16:b3:0a:d7:3c:cd:d7:6a:60:5b:b2:c7:
                    ab:d9:7c:d1:67:cc:b0:8f:f8:66:69:35:b4:ec:2c:
                    d5:e3:cd:6c:9a:ce:12:b5:80:69:1c:bb:8d:f5:59:
                    f4:02:60:40:b6:5e:6e:78:b9:09:7e:79:74:e4:52:
                    cb:a4:78:57:b0:23:f2:8b:c6:2c:15:fd:6b:50:0c:
                    5b:4f:f7:98:f5:6c:ad:47:56:28:bc:66:62:25:eb:
                    28:68:2c:e6:29:2e:95:67:e2:b9:aa:a4:7d:47:77:
                    ec:4e:97:d0:0e:98:82:57:1e:73:a6:7e:cc:44:e8:
                    61:28:d9:87:44:d4:5d:df:57:97:bf:99:8a:09:c3:
                    4e:27:db:d0:24:49:04:3e:64:a0:4e:7a:b9:c1:10:
                    ca:08:84:ab:e3:4d:66:93:83:f9:f4:92:51:2e:3e:
                    77:c4:b2:8c:2a:03:0d:50:a2:fb:a3:01:cf:92:7c:
                    63:b2:8d:23:44:5e:a0:89:0a:29:2a:89:dd:20:0f:
                    67:6c:e3:82:4d:24:a0:ba:4a:4f:40:7a:e6:89:b1:
                    b0:43:bb:69:a1:61:8d:49:3c:67:2c:14:c1:69:d1:
                    cc:77
                Exponent: 65537 (0x10001)
        X509v3 extensions:
            X509v3 Basic Constraints: 
                CA:FALSE
            Netscape Comment: 
                OpenSSL Generated Certificate
            X509v3 Subject Key Identifier: 
                EE:44:50:3D:0E:6F:7E:17:45:38:6D:02:74:CC:A5:FD:8C:66:DA:CD
            X509v3 Authority Key Identifier: 
                keyid:05:BE:CC:3C:90:39:8C:38:46:59:23:DD:0C:28:04:B4:18:43:CB:6C

    Signature Algorithm: sha256WithRSAEncryption
         7b:34:34:4d:1c:24:08:cb:e8:f1:b1:3b:13:6f:33:7e:52:96:
         e1:4b:79:76:70:35:8b:53:5c:ec:a7:f9:72:c8:e7:d7:9a:2d:
         ba:4c:50:1b:7c:6e:ca:c1:87:0a:35:e0:6c:ae:8c:02:b4:d4:
         0a:66:8f:6f:b7:9a:f2:b0:d2:41:91:7a:bc:1a:70:f2:77:82:
         a4:b3:23:68:40:11:9e:4b:70:9b:b1:80:99:8c:fd:df:f1:ea:
         7f:0d:7b:0b:fe:ee:a0:ed:ae:77:8f:d8:30:a8:a2:5b:ae:5f:
         df:b0:dd:ba:b8:a0:19:e8:30:c4:83:7a:4c:5b:6e:02:b2:8f:
         07:65:1f:a9:78:9a:2a:cd:04:d6:76:e0:ff:7b:3a:f9:33:62:
         39:f2:1a:02:c8:38:be:1f:e6:6c:03:87:e8:6c:c5:18:c0:88:
         c5:cc:30:25:9b:17:b3:28:70:2a:24:55:c6:b5:34:b5:9e:83:
         3d:fd:f9:47:a7:73:d3:ec:d2:ba:e4:28:8b:8a:52:a3:4c:ac:
         09:ae:48:c2:f5:77:1e:73:a5:d6:c3:47:f1:cb:ce:bf:33:87:
         af:8f:33:de:d8:81:ed:eb:c7:1c:48:75:6c:c1:1a:3d:ff:b2:
         38:b0:80:34:1a:88:da:10:27:27:3b:32:6f:e5:6e:65:23:41:
         1c:a2:6d:e5
-----BEGIN CERTIFICATE-----
MIIDmTCCAoGgAwIBAgIBAjANBgkqhkiG9w0BAQsFADA2MQswCQYDVQQGEwJlczEM
MAoGA1UECgwDdW11MQwwCgYDVQQLDANwcGMxCzAJBgNVBAMMAmNhMB4XDTIxMTAx
MzE2MTg0OFoXDTIyMTAxMzE2MTg0OFowbTELMAkGA1UEBhMCZXMxEDAOBgNVBAgT
B1Vua25vd24xEDAOBgNVBAcTB1Vua25vd24xDDAKBgNVBAoTA3VtdTEMMAoGA1UE
CxMDcHBjMR4wHAYDVQQDExVQZWRybyBOaWNvbGFzIEdvbWFyaXowggEiMA0GCSqG
SIb3DQEBAQUAA4IBDwAwggEKAoIBAQCAqlpHOJIaYJYkNZUwaDTgsMhO5cFL8+Ox
a8XhZvqmsxazCtc8zddqYFuyx6vZfNFnzLCP+GZpNbTsLNXjzWyazhK1gGkcu431
WfQCYEC2Xm54uQl+eXTkUsukeFewI/KLxiwV/WtQDFtP95j1bK1HVii8ZmIl6yho
LOYpLpVn4rmqpH1Hd+xOl9AOmIJXHnOmfsxE6GEo2YdE1F3fV5e/mYoJw04n29Ak
SQQ+ZKBOernBEMoIhKvjTWaTg/n0klEuPnfEsowqAw1QovujAc+SfGOyjSNEXqCJ
Cikqid0gD2ds44JNJKC6Sk9AeuaJsbBDu2mhYY1JPGcsFMFp0cx3AgMBAAGjezB5
MAkGA1UdEwQCMAAwLAYJYIZIAYb4QgENBB8WHU9wZW5TU0wgR2VuZXJhdGVkIENl
cnRpZmljYXRlMB0GA1UdDgQWBBTuRFA9Dm9+F0U4bQJ0zKX9jGbazTAfBgNVHSME
GDAWgBQFvsw8kDmMOEZZI90MKAS0GEPLbDANBgkqhkiG9w0BAQsFAAOCAQEAezQ0
TRwkCMvo8bE7E28zflKW4Ut5dnA1i1Nc7Kf5csjn15otukxQG3xuysGHCjXgbK6M
ArTUCmaPb7ea8rDSQZF6vBpw8neCpLMjaEARnktwm7GAmYz93/Hqfw17C/7uoO2u
d4/YMKiiW65f37DdurigGegwxIN6TFtuArKPB2UfqXiaKs0E1nbg/3s6+TNiOfIa
Asg4vh/mbAOH6GzFGMCIxcwwJZsXsyhwKiRVxrU0tZ6DPf35R6dz0+zSuuQoi4pS
o0ysCa5IwvV3HnOl1sNH8cvOvzOHr48z3tiB7evHHEh1bMEaPf+yOLCANBqI2hAn
Jzsyb+VuZSNBHKJt5Q==
-----END CERTIFICATE-----
